; ModuleID = '28/1718.c'
source_filename = "28/1718.c"
target datalayout = "e-m:e-p270:32:32-p271:32:32-p272:64:64-i64:64-f80:128-n8:16:32:64-S128"
target triple = "x86_64-pc-linux-gnu"

@.str = private unnamed_addr constant [4 x i8] c"%d,\00", align 1
@.str.1 = private unnamed_addr constant [3 x i8] c"%d\00", align 1

; Function Attrs: noinline nounwind uwtable
define dso_local i32 @main() #0 {
  %1 = alloca i32, align 4
  %2 = alloca [10000 x i8], align 16
  %3 = alloca [200 x [300 x i8]], align 16
  %4 = alloca [300 x i32], align 16
  %5 = alloca i8*, align 8
  %6 = alloca i32, align 4
  %7 = alloca i32, align 4
  %8 = alloca i32, align 4
  %9 = alloca i32, align 4
  %10 = alloca i32, align 4
  store i32 0, i32* %1, align 4
  %11 = bitcast [10000 x i8]* %2 to i8*
  call void @llvm.memset.p0i8.i64(i8* align 16 %11, i8 0, i64 10000, i1 false)
  %12 = bitcast [200 x [300 x i8]]* %3 to i8*
  call void @llvm.memset.p0i8.i64(i8* align 16 %12, i8 0, i64 60000, i1 false)
  %13 = getelementptr inbounds [10000 x i8], [10000 x i8]* %2, i64 0, i64 0
  %14 = call i32 (i8*, ...) bitcast (i32 (...)* @gets to i32 (i8*, ...)*)(i8* %13)
  %15 = getelementptr inbounds [10000 x i8], [10000 x i8]* %2, i64 0, i64 0
  store i8* %15, i8** %5, align 8
  store i32 0, i32* %6, align 4
  store i32 0, i32* %7, align 4
  store i32 0, i32* %8, align 4
  store i32 0, i32* %9, align 4
  %16 = getelementptr inbounds [10000 x i8], [10000 x i8]* %2, i64 0, i64 0
  %17 = call i64 @strlen(i8* %16) #4
  %18 = trunc i64 %17 to i32
  store i32 %18, i32* %7, align 4
  store i32 0, i32* %6, align 4
  br label %19

19:                                               ; preds = %57, %0
  %20 = load i32, i32* %6, align 4
  %21 = load i32, i32* %7, align 4
  %22 = icmp slt i32 %20, %21
  br i1 %22, label %23, label %60

23:                                               ; preds = %19
  %24 = load i8*, i8** %5, align 8
  %25 = load i8, i8* %24, align 1
  %26 = sext i8 %25 to i32
  %27 = icmp ne i32 %26, 32
  br i1 %27, label %28, label %39

28:                                               ; preds = %23
  %29 = load i8*, i8** %5, align 8
  %30 = load i8, i8* %29, align 1
  %31 = load i32, i32* %8, align 4
  %32 = sext i32 %31 to i64
  %33 = getelementptr inbounds [200 x [300 x i8]], [200 x [300 x i8]]* %3, i64 0, i64 %32
  %34 = load i32, i32* %9, align 4
  %35 = sext i32 %34 to i64
  %36 = getelementptr inbounds [300 x i8], [300 x i8]* %33, i64 0, i64 %35
  store i8 %30, i8* %36, align 1
  %37 = load i32, i32* %9, align 4
  %38 = add nsw i32 %37, 1
  store i32 %38, i32* %9, align 4
  br label %39

39:                                               ; preds = %28, %23
  %40 = load i8*, i8** %5, align 8
  %41 = load i8, i8* %40, align 1
  %42 = sext i8 %41 to i32
  %43 = icmp eq i32 %42, 32
  br i1 %43, label %44, label %54

44:                                               ; preds = %39
  %45 = load i8*, i8** %5, align 8
  %46 = getelementptr inbounds i8, i8* %45, i64 -1
  %47 = load i8, i8* %46, align 1
  %48 = sext i8 %47 to i32
  %49 = icmp ne i32 %48, 32
  br i1 %49, label %50, label %53

50:                                               ; preds = %44
  %51 = load i32, i32* %8, align 4
  %52 = add nsw i32 %51, 1
  store i32 %52, i32* %8, align 4
  store i32 0, i32* %9, align 4
  br label %53

53:                                               ; preds = %50, %44
  br label %54

54:                                               ; preds = %53, %39
  %55 = load i8*, i8** %5, align 8
  %56 = getelementptr inbounds i8, i8* %55, i32 1
  store i8* %56, i8** %5, align 8
  br label %57

57:                                               ; preds = %54
  %58 = load i32, i32* %6, align 4
  %59 = add nsw i32 %58, 1
  store i32 %59, i32* %6, align 4
  br label %19

60:                                               ; preds = %19
  store i8* null, i8** %5, align 8
  store i32 0, i32* %10, align 4
  store i32 0, i32* %6, align 4
  br label %61

61:                                               ; preds = %69, %60
  %62 = load i32, i32* %6, align 4
  %63 = sext i32 %62 to i64
  %64 = getelementptr inbounds [200 x [300 x i8]], [200 x [300 x i8]]* %3, i64 0, i64 %63
  %65 = getelementptr inbounds [300 x i8], [300 x i8]* %64, i64 0, i64 0
  %66 = load i8, i8* %65, align 4
  %67 = sext i8 %66 to i32
  %68 = icmp ne i32 %67, 0
  br i1 %68, label %69, label %74

69:                                               ; preds = %61
  %70 = load i32, i32* %10, align 4
  %71 = add nsw i32 %70, 1
  store i32 %71, i32* %10, align 4
  %72 = load i32, i32* %6, align 4
  %73 = add nsw i32 %72, 1
  store i32 %73, i32* %6, align 4
  br label %61

74:                                               ; preds = %61
  store i32 0, i32* %6, align 4
  br label %75

75:                                               ; preds = %89, %74
  %76 = load i32, i32* %6, align 4
  %77 = load i32, i32* %10, align 4
  %78 = icmp slt i32 %76, %77
  br i1 %78, label %79, label %92

79:                                               ; preds = %75
  %80 = load i32, i32* %6, align 4
  %81 = sext i32 %80 to i64
  %82 = getelementptr inbounds [200 x [300 x i8]], [200 x [300 x i8]]* %3, i64 0, i64 %81
  %83 = getelementptr inbounds [300 x i8], [300 x i8]* %82, i64 0, i64 0
  %84 = call i64 @strlen(i8* %83) #4
  %85 = trunc i64 %84 to i32
  %86 = load i32, i32* %6, align 4
  %87 = sext i32 %86 to i64
  %88 = getelementptr inbounds [300 x i32], [300 x i32]* %4, i64 0, i64 %87
  store i32 %85, i32* %88, align 4
  br label %89

89:                                               ; preds = %79
  %90 = load i32, i32* %6, align 4
  %91 = add nsw i32 %90, 1
  store i32 %91, i32* %6, align 4
  br label %75

92:                                               ; preds = %75
  store i32 0, i32* %6, align 4
  br label %93

93:                                               ; preds = %104, %92
  %94 = load i32, i32* %6, align 4
  %95 = load i32, i32* %10, align 4
  %96 = sub nsw i32 %95, 1
  %97 = icmp slt i32 %94, %96
  br i1 %97, label %98, label %107

98:                                               ; preds = %93
  %99 = load i32, i32* %6, align 4
  %100 = sext i32 %99 to i64
  %101 = getelementptr inbounds [300 x i32], [300 x i32]* %4, i64 0, i64 %100
  %102 = load i32, i32* %101, align 4
  %103 = call i32 (i8*, ...) @printf(i8* getelementptr inbounds ([4 x i8], [4 x i8]* @.str, i64 0, i64 0), i32 %102)
  br label %104

104:                                              ; preds = %98
  %105 = load i32, i32* %6, align 4
  %106 = add nsw i32 %105, 1
  store i32 %106, i32* %6, align 4
  br label %93

107:                                              ; preds = %93
  %108 = load i32, i32* %10, align 4
  %109 = sub nsw i32 %108, 1
  %110 = sext i32 %109 to i64
  %111 = getelementptr inbounds [300 x i32], [300 x i32]* %4, i64 0, i64 %110
  %112 = load i32, i32* %111, align 4
  %113 = call i32 (i8*, ...) @printf(i8* getelementptr inbounds ([3 x i8], [3 x i8]* @.str.1, i64 0, i64 0), i32 %112)
  ret i32 0
}

; Function Attrs: argmemonly nounwind willreturn
declare void @llvm.memset.p0i8.i64(i8* nocapture writeonly, i8, i64, i1 immarg) #1

declare dso_local i32 @gets(...) #2

; Function Attrs: nounwind readonly
declare dso_local i64 @strlen(i8*) #3

declare dso_local i32 @printf(i8*, ...) #2


!llvm.module.flags = !{!0}
!llvm.ident = !{!1}

!0 = !{i32 1, !"wchar_size", i32 4}
!1 = !{!"clang version 10.0.0-4ubuntu1 "}
